; Function Attrs: nounwind sspstrong uwtable
define internal noundef i64 @econv_set_replacement(i64 noundef %0, i64 noundef returned %1) #0 {
  %3 = alloca i64, align 8
  %4 = tail call ptr @rb_check_typeddata(i64 noundef %0, ptr noundef nonnull @econv_data_type) #22
  %.not.i = icmp eq ptr %4, null
  br i1 %.not.i, label %5, label %check_econv.exit

5:                                                ; preds = %2
  %6 = load i64, ptr @rb_eTypeError, align 8, !tbaa !22
  tail call void (i64, ptr, ...) @rb_raise(i64 noundef %6, ptr noundef nonnull @.str.119) #23
  unreachable

check_econv.exit:                                 ; preds = %2
  call void @llvm.lifetime.start.p0(i64 8, ptr nonnull %3) #22
  store i64 %1, ptr %3, align 8, !tbaa !22
  %7 = call i64 @rb_string_value(ptr noundef nonnull %3) #22
  %8 = load i64, ptr %3, align 8, !tbaa !22
  %9 = call ptr @rb_enc_get(i64 noundef %8) #22
  %10 = load i64, ptr %3, align 8, !tbaa !22
  %11 = inttoptr i64 %10 to ptr
  %12 = load i64, ptr %11, align 8, !tbaa !33, !noalias !245
  %13 = and i64 %12, 8192
  %.not.i.i = icmp eq i64 %13, 0
  %14 = getelementptr inbounds nuw i8, ptr %11, i64 24
  br i1 %.not.i.i, label %RSTRING_PTR.exit, label %15

15:                                               ; preds = %check_econv.exit
  %.sroa.2.0.copyload.i = load ptr, ptr %14, align 8
  br label %RSTRING_PTR.exit

RSTRING_PTR.exit:                                 ; preds = %check_econv.exit, %15
  %.sroa.2.0.i = phi ptr [ %.sroa.2.0.copyload.i, %15 ], [ %14, %check_econv.exit ]
  %16 = getelementptr inbounds nuw i8, ptr %11, i64 16
  %17 = load i64, ptr %16, align 8, !tbaa !114
  %18 = getelementptr i8, ptr %9, i64 8
  %.val = load ptr, ptr %18, align 8, !tbaa !146
  %19 = call i32 @rb_econv_set_replacement(ptr noundef nonnull %4, ptr noundef %.sroa.2.0.i, i64 noundef %17, ptr noundef %.val)
  %20 = icmp eq i32 %19, -1
  br i1 %20, label %21, label %23

21:                                               ; preds = %RSTRING_PTR.exit
  %22 = load i64, ptr @rb_eUndefinedConversionError, align 8, !tbaa !22
  call void (i64, ptr, ...) @rb_raise(i64 noundef %22, ptr noundef nonnull @.str.129) #23
  unreachable

23:                                               ; preds = %RSTRING_PTR.exit
  call void @llvm.lifetime.end.p0(i64 8, ptr nonnull %3) #22
  ret i64 %1
}